; Function Attrs: inlinehint nounwind uwtable
define internal fastcc i32 @pmix_bfrops_base_tma_copy_cpuset(ptr noundef nonnull writeonly captures(none) %0, ptr noundef %1, ptr noundef %2) unnamed_addr #4 {
  %.not.i.i = icmp eq ptr %2, null
  br i1 %.not.i.i, label %7, label %4

4:                                                ; preds = %3
  %5 = load ptr, ptr %2, align 8, !tbaa !39
  %6 = tail call ptr %5(ptr noundef nonnull %2, i64 noundef 16) #17
  br label %pmix_tma_malloc.exit.i

7:                                                ; preds = %3
  %8 = tail call noalias dereferenceable_or_null(16) ptr @malloc(i64 noundef 16) #18
  br label %pmix_tma_malloc.exit.i

pmix_tma_malloc.exit.i:                           ; preds = %7, %4
  %.0.i.i = phi ptr [ %6, %4 ], [ %8, %7 ]
  %.not.i = icmp eq ptr %.0.i.i, null
  br i1 %.not.i, label %pmix_tma_free.exit, label %9, !prof !29

9:                                                ; preds = %pmix_tma_malloc.exit.i
  tail call void @llvm.memset.p0.i64(ptr noundef nonnull align 8 dereferenceable(16) %.0.i.i, i8 0, i64 16, i1 false)
  %10 = tail call i32 @pmix_hwloc_copy_cpuset(ptr noundef nonnull %.0.i.i, ptr noundef %1) #17
  %11 = icmp eq i32 %10, 0
  br i1 %11, label %12, label %13

12:                                               ; preds = %9
  store ptr %.0.i.i, ptr %0, align 8, !tbaa !62
  br label %pmix_tma_free.exit

13:                                               ; preds = %9
  br i1 %.not.i.i, label %17, label %14

14:                                               ; preds = %13
  %15 = getelementptr inbounds nuw i8, ptr %2, i64 40
  %16 = load ptr, ptr %15, align 8, !tbaa !38
  tail call void %16(ptr noundef nonnull %2, ptr noundef nonnull %.0.i.i) #17
  br label %pmix_tma_free.exit

17:                                               ; preds = %13
  tail call void @free(ptr noundef nonnull %.0.i.i) #17
  br label %pmix_tma_free.exit

pmix_tma_free.exit:                               ; preds = %pmix_tma_malloc.exit.i, %17, %14, %12
  %.0 = phi i32 [ 0, %12 ], [ %10, %14 ], [ %10, %17 ], [ -32, %pmix_tma_malloc.exit.i ]
  ret i32 %.0
}